                                      1 ;--------------------------------------------------------
                                      2 ; File Created by SDCC : free open source ANSI-C Compiler
                                      3 ; Version 3.8.0 #10562 (Linux)
                                      4 ;--------------------------------------------------------
                                      5 	.module stm8s_exti
                                      6 	.optsdcc -mstm8
                                      7 	
                                      8 ;--------------------------------------------------------
                                      9 ; Public variables in this module
                                     10 ;--------------------------------------------------------
                                     11 	.globl _assert_failed
                                     12 	.globl _EXTI_DeInit
                                     13 	.globl _EXTI_SetExtIntSensitivity
                                     14 	.globl _EXTI_SetTLISensitivity
                                     15 	.globl _EXTI_GetExtIntSensitivity
                                     16 	.globl _EXTI_GetTLISensitivity
                                     17 ;--------------------------------------------------------
                                     18 ; ram data
                                     19 ;--------------------------------------------------------
                                     20 	.area DATA
                                     21 ;--------------------------------------------------------
                                     22 ; ram data
                                     23 ;--------------------------------------------------------
                                     24 	.area INITIALIZED
                                     25 ;--------------------------------------------------------
                                     26 ; absolute external ram data
                                     27 ;--------------------------------------------------------
                                     28 	.area DABS (ABS)
                                     29 
                                     30 ; default segment ordering for linker
                                     31 	.area HOME
                                     32 	.area GSINIT
                                     33 	.area GSFINAL
                                     34 	.area CONST
                                     35 	.area INITIALIZER
                                     36 	.area CODE
                                     37 
                                     38 ;--------------------------------------------------------
                                     39 ; global & static initialisations
                                     40 ;--------------------------------------------------------
                                     41 	.area HOME
                                     42 	.area GSINIT
                                     43 	.area GSFINAL
                                     44 	.area GSINIT
                                     45 ;--------------------------------------------------------
                                     46 ; Home
                                     47 ;--------------------------------------------------------
                                     48 	.area HOME
                                     49 	.area HOME
                                     50 ;--------------------------------------------------------
                                     51 ; code
                                     52 ;--------------------------------------------------------
                                     53 	.area CODE
                                     54 ;	../src/stm8s_exti.c: 53: void EXTI_DeInit(void)
                                     55 ;	-----------------------------------------
                                     56 ;	 function EXTI_DeInit
                                     57 ;	-----------------------------------------
      000000                         58 _EXTI_DeInit:
                                     59 ;	../src/stm8s_exti.c: 55: EXTI->CR1 = EXTI_CR1_RESET_VALUE;
      000000 35 00 50 A0      [ 1]   60 	mov	0x50a0+0, #0x00
                                     61 ;	../src/stm8s_exti.c: 56: EXTI->CR2 = EXTI_CR2_RESET_VALUE;
      000004 35 00 50 A1      [ 1]   62 	mov	0x50a1+0, #0x00
                                     63 ;	../src/stm8s_exti.c: 57: }
      000008 81               [ 4]   64 	ret
                                     65 ;	../src/stm8s_exti.c: 70: void EXTI_SetExtIntSensitivity(EXTI_Port_TypeDef Port, EXTI_Sensitivity_TypeDef SensitivityValue)
                                     66 ;	-----------------------------------------
                                     67 ;	 function EXTI_SetExtIntSensitivity
                                     68 ;	-----------------------------------------
      000009                         69 _EXTI_SetExtIntSensitivity:
      000009 89               [ 2]   70 	pushw	x
                                     71 ;	../src/stm8s_exti.c: 73: assert_param(IS_EXTI_PORT_OK(Port));
      00000A 0D 05            [ 1]   72 	tnz	(0x05, sp)
      00000C 27 26            [ 1]   73 	jreq	00111$
      00000E 7B 05            [ 1]   74 	ld	a, (0x05, sp)
      000010 4A               [ 1]   75 	dec	a
      000011 27 21            [ 1]   76 	jreq	00111$
      000013 7B 05            [ 1]   77 	ld	a, (0x05, sp)
      000015 A1 02            [ 1]   78 	cp	a, #0x02
      000017 27 1B            [ 1]   79 	jreq	00111$
      000019 7B 05            [ 1]   80 	ld	a, (0x05, sp)
      00001B A1 03            [ 1]   81 	cp	a, #0x03
      00001D 27 15            [ 1]   82 	jreq	00111$
      00001F 7B 05            [ 1]   83 	ld	a, (0x05, sp)
      000021 A1 04            [ 1]   84 	cp	a, #0x04
      000023 27 0F            [ 1]   85 	jreq	00111$
      000025 4B 49            [ 1]   86 	push	#0x49
      000027 5F               [ 1]   87 	clrw	x
      000028 89               [ 2]   88 	pushw	x
      000029 4B 00            [ 1]   89 	push	#0x00
      00002B 4Br00            [ 1]   90 	push	#<___str_0
      00002D 4Bs00            [ 1]   91 	push	#(___str_0 >> 8)
      00002F CDr00r00         [ 4]   92 	call	_assert_failed
      000032 5B 06            [ 2]   93 	addw	sp, #6
      000034                         94 00111$:
                                     95 ;	../src/stm8s_exti.c: 74: assert_param(IS_EXTI_SENSITIVITY_OK(SensitivityValue));
      000034 0D 06            [ 1]   96 	tnz	(0x06, sp)
      000036 27 20            [ 1]   97 	jreq	00125$
      000038 7B 06            [ 1]   98 	ld	a, (0x06, sp)
      00003A 4A               [ 1]   99 	dec	a
      00003B 27 1B            [ 1]  100 	jreq	00125$
      00003D 7B 06            [ 1]  101 	ld	a, (0x06, sp)
      00003F A1 02            [ 1]  102 	cp	a, #0x02
      000041 27 15            [ 1]  103 	jreq	00125$
      000043 7B 06            [ 1]  104 	ld	a, (0x06, sp)
      000045 A1 03            [ 1]  105 	cp	a, #0x03
      000047 27 0F            [ 1]  106 	jreq	00125$
      000049 4B 4A            [ 1]  107 	push	#0x4a
      00004B 5F               [ 1]  108 	clrw	x
      00004C 89               [ 2]  109 	pushw	x
      00004D 4B 00            [ 1]  110 	push	#0x00
      00004F 4Br00            [ 1]  111 	push	#<___str_0
      000051 4Bs00            [ 1]  112 	push	#(___str_0 >> 8)
      000053 CDr00r00         [ 4]  113 	call	_assert_failed
      000056 5B 06            [ 2]  114 	addw	sp, #6
      000058                        115 00125$:
                                    116 ;	../src/stm8s_exti.c: 77: switch (Port)
      000058 7B 05            [ 1]  117 	ld	a, (0x05, sp)
      00005A A1 04            [ 1]  118 	cp	a, #0x04
      00005C 23 03            [ 2]  119 	jrule	00208$
      00005E CCr00rE5         [ 2]  120 	jp	00108$
      000061                        121 00208$:
                                    122 ;	../src/stm8s_exti.c: 85: EXTI->CR1 |= (uint8_t)((uint8_t)(SensitivityValue) << 2);
      000061 7B 06            [ 1]  123 	ld	a, (0x06, sp)
      000063 90 97            [ 1]  124 	ld	yl, a
                                    125 ;	../src/stm8s_exti.c: 77: switch (Port)
      000065 5F               [ 1]  126 	clrw	x
      000066 7B 05            [ 1]  127 	ld	a, (0x05, sp)
      000068 97               [ 1]  128 	ld	xl, a
      000069 58               [ 2]  129 	sllw	x
      00006A DEu00u6E         [ 2]  130 	ldw	x, (#00209$, x)
      00006D FC               [ 2]  131 	jp	(x)
      00006E                        132 00209$:
      00006Er00r78                  133 	.dw	#00101$
      000070r00r8A                  134 	.dw	#00102$
      000072r00rA1                  135 	.dw	#00103$
      000074r00rBA                  136 	.dw	#00104$
      000076r00rD5                  137 	.dw	#00105$
                                    138 ;	../src/stm8s_exti.c: 79: case EXTI_PORT_GPIOA:
      000078                        139 00101$:
                                    140 ;	../src/stm8s_exti.c: 80: EXTI->CR1 &= (uint8_t)(~EXTI_CR1_PAIS);
      000078 C6 50 A0         [ 1]  141 	ld	a, 0x50a0
      00007B A4 FC            [ 1]  142 	and	a, #0xfc
      00007D C7 50 A0         [ 1]  143 	ld	0x50a0, a
                                    144 ;	../src/stm8s_exti.c: 81: EXTI->CR1 |= (uint8_t)(SensitivityValue);
      000080 C6 50 A0         [ 1]  145 	ld	a, 0x50a0
      000083 1A 06            [ 1]  146 	or	a, (0x06, sp)
      000085 C7 50 A0         [ 1]  147 	ld	0x50a0, a
                                    148 ;	../src/stm8s_exti.c: 82: break;
      000088 20 5B            [ 2]  149 	jra	00108$
                                    150 ;	../src/stm8s_exti.c: 83: case EXTI_PORT_GPIOB:
      00008A                        151 00102$:
                                    152 ;	../src/stm8s_exti.c: 84: EXTI->CR1 &= (uint8_t)(~EXTI_CR1_PBIS);
      00008A C6 50 A0         [ 1]  153 	ld	a, 0x50a0
      00008D A4 F3            [ 1]  154 	and	a, #0xf3
      00008F C7 50 A0         [ 1]  155 	ld	0x50a0, a
                                    156 ;	../src/stm8s_exti.c: 85: EXTI->CR1 |= (uint8_t)((uint8_t)(SensitivityValue) << 2);
      000092 C6 50 A0         [ 1]  157 	ld	a, 0x50a0
      000095 93               [ 1]  158 	ldw	x, y
      000096 58               [ 2]  159 	sllw	x
      000097 58               [ 2]  160 	sllw	x
      000098 89               [ 2]  161 	pushw	x
      000099 1A 02            [ 1]  162 	or	a, (2, sp)
      00009B 85               [ 2]  163 	popw	x
      00009C C7 50 A0         [ 1]  164 	ld	0x50a0, a
                                    165 ;	../src/stm8s_exti.c: 86: break;
      00009F 20 44            [ 2]  166 	jra	00108$
                                    167 ;	../src/stm8s_exti.c: 87: case EXTI_PORT_GPIOC:
      0000A1                        168 00103$:
                                    169 ;	../src/stm8s_exti.c: 88: EXTI->CR1 &= (uint8_t)(~EXTI_CR1_PCIS);
      0000A1 C6 50 A0         [ 1]  170 	ld	a, 0x50a0
      0000A4 A4 CF            [ 1]  171 	and	a, #0xcf
      0000A6 C7 50 A0         [ 1]  172 	ld	0x50a0, a
                                    173 ;	../src/stm8s_exti.c: 89: EXTI->CR1 |= (uint8_t)((uint8_t)(SensitivityValue) << 4);
      0000A9 C6 50 A0         [ 1]  174 	ld	a, 0x50a0
      0000AC 6B 02            [ 1]  175 	ld	(0x02, sp), a
      0000AE 90 9F            [ 1]  176 	ld	a, yl
      0000B0 4E               [ 1]  177 	swap	a
      0000B1 A4 F0            [ 1]  178 	and	a, #0xf0
      0000B3 1A 02            [ 1]  179 	or	a, (0x02, sp)
      0000B5 C7 50 A0         [ 1]  180 	ld	0x50a0, a
                                    181 ;	../src/stm8s_exti.c: 90: break;
      0000B8 20 2B            [ 2]  182 	jra	00108$
                                    183 ;	../src/stm8s_exti.c: 91: case EXTI_PORT_GPIOD:
      0000BA                        184 00104$:
                                    185 ;	../src/stm8s_exti.c: 92: EXTI->CR1 &= (uint8_t)(~EXTI_CR1_PDIS);
      0000BA C6 50 A0         [ 1]  186 	ld	a, 0x50a0
      0000BD A4 3F            [ 1]  187 	and	a, #0x3f
      0000BF C7 50 A0         [ 1]  188 	ld	0x50a0, a
                                    189 ;	../src/stm8s_exti.c: 93: EXTI->CR1 |= (uint8_t)((uint8_t)(SensitivityValue) << 6);
      0000C2 C6 50 A0         [ 1]  190 	ld	a, 0x50a0
      0000C5 6B 01            [ 1]  191 	ld	(0x01, sp), a
      0000C7 90 9F            [ 1]  192 	ld	a, yl
      0000C9 4E               [ 1]  193 	swap	a
      0000CA A4 F0            [ 1]  194 	and	a, #0xf0
      0000CC 48               [ 1]  195 	sll	a
      0000CD 48               [ 1]  196 	sll	a
      0000CE 1A 01            [ 1]  197 	or	a, (0x01, sp)
      0000D0 C7 50 A0         [ 1]  198 	ld	0x50a0, a
                                    199 ;	../src/stm8s_exti.c: 94: break;
      0000D3 20 10            [ 2]  200 	jra	00108$
                                    201 ;	../src/stm8s_exti.c: 95: case EXTI_PORT_GPIOE:
      0000D5                        202 00105$:
                                    203 ;	../src/stm8s_exti.c: 96: EXTI->CR2 &= (uint8_t)(~EXTI_CR2_PEIS);
      0000D5 C6 50 A1         [ 1]  204 	ld	a, 0x50a1
      0000D8 A4 FC            [ 1]  205 	and	a, #0xfc
      0000DA C7 50 A1         [ 1]  206 	ld	0x50a1, a
                                    207 ;	../src/stm8s_exti.c: 97: EXTI->CR2 |= (uint8_t)(SensitivityValue);
      0000DD C6 50 A1         [ 1]  208 	ld	a, 0x50a1
      0000E0 1A 06            [ 1]  209 	or	a, (0x06, sp)
      0000E2 C7 50 A1         [ 1]  210 	ld	0x50a1, a
                                    211 ;	../src/stm8s_exti.c: 101: }
      0000E5                        212 00108$:
                                    213 ;	../src/stm8s_exti.c: 102: }
      0000E5 85               [ 2]  214 	popw	x
      0000E6 81               [ 4]  215 	ret
                                    216 ;	../src/stm8s_exti.c: 111: void EXTI_SetTLISensitivity(EXTI_TLISensitivity_TypeDef SensitivityValue)
                                    217 ;	-----------------------------------------
                                    218 ;	 function EXTI_SetTLISensitivity
                                    219 ;	-----------------------------------------
      0000E7                        220 _EXTI_SetTLISensitivity:
                                    221 ;	../src/stm8s_exti.c: 114: assert_param(IS_EXTI_TLISENSITIVITY_OK(SensitivityValue));
      0000E7 0D 03            [ 1]  222 	tnz	(0x03, sp)
      0000E9 27 15            [ 1]  223 	jreq	00104$
      0000EB 7B 03            [ 1]  224 	ld	a, (0x03, sp)
      0000ED A1 04            [ 1]  225 	cp	a, #0x04
      0000EF 27 0F            [ 1]  226 	jreq	00104$
      0000F1 4B 72            [ 1]  227 	push	#0x72
      0000F3 5F               [ 1]  228 	clrw	x
      0000F4 89               [ 2]  229 	pushw	x
      0000F5 4B 00            [ 1]  230 	push	#0x00
      0000F7 4Br00            [ 1]  231 	push	#<___str_0
      0000F9 4Bs00            [ 1]  232 	push	#(___str_0 >> 8)
      0000FB CDr00r00         [ 4]  233 	call	_assert_failed
      0000FE 5B 06            [ 2]  234 	addw	sp, #6
      000100                        235 00104$:
                                    236 ;	../src/stm8s_exti.c: 117: EXTI->CR2 &= (uint8_t)(~EXTI_CR2_TLIS);
      000100 C6 50 A1         [ 1]  237 	ld	a, 0x50a1
      000103 A4 FB            [ 1]  238 	and	a, #0xfb
      000105 C7 50 A1         [ 1]  239 	ld	0x50a1, a
                                    240 ;	../src/stm8s_exti.c: 118: EXTI->CR2 |= (uint8_t)(SensitivityValue);
      000108 C6 50 A1         [ 1]  241 	ld	a, 0x50a1
      00010B 1A 03            [ 1]  242 	or	a, (0x03, sp)
      00010D C7 50 A1         [ 1]  243 	ld	0x50a1, a
                                    244 ;	../src/stm8s_exti.c: 119: }
      000110 81               [ 4]  245 	ret
                                    246 ;	../src/stm8s_exti.c: 126: EXTI_Sensitivity_TypeDef EXTI_GetExtIntSensitivity(EXTI_Port_TypeDef Port)
                                    247 ;	-----------------------------------------
                                    248 ;	 function EXTI_GetExtIntSensitivity
                                    249 ;	-----------------------------------------
      000111                        250 _EXTI_GetExtIntSensitivity:
                                    251 ;	../src/stm8s_exti.c: 128: uint8_t value = 0;
      000111 4F               [ 1]  252 	clr	a
                                    253 ;	../src/stm8s_exti.c: 131: assert_param(IS_EXTI_PORT_OK(Port));
      000112 0D 03            [ 1]  254 	tnz	(0x03, sp)
      000114 27 30            [ 1]  255 	jreq	00111$
      000116 88               [ 1]  256 	push	a
      000117 7B 04            [ 1]  257 	ld	a, (0x04, sp)
      000119 4A               [ 1]  258 	dec	a
      00011A 84               [ 1]  259 	pop	a
      00011B 27 29            [ 1]  260 	jreq	00111$
      00011D 88               [ 1]  261 	push	a
      00011E 7B 04            [ 1]  262 	ld	a, (0x04, sp)
      000120 A1 02            [ 1]  263 	cp	a, #0x02
      000122 84               [ 1]  264 	pop	a
      000123 27 21            [ 1]  265 	jreq	00111$
      000125 88               [ 1]  266 	push	a
      000126 7B 04            [ 1]  267 	ld	a, (0x04, sp)
      000128 A1 03            [ 1]  268 	cp	a, #0x03
      00012A 84               [ 1]  269 	pop	a
      00012B 27 19            [ 1]  270 	jreq	00111$
      00012D 88               [ 1]  271 	push	a
      00012E 7B 04            [ 1]  272 	ld	a, (0x04, sp)
      000130 A1 04            [ 1]  273 	cp	a, #0x04
      000132 84               [ 1]  274 	pop	a
      000133 27 11            [ 1]  275 	jreq	00111$
      000135 88               [ 1]  276 	push	a
      000136 4B 83            [ 1]  277 	push	#0x83
      000138 5F               [ 1]  278 	clrw	x
      000139 89               [ 2]  279 	pushw	x
      00013A 4B 00            [ 1]  280 	push	#0x00
      00013C 4Br00            [ 1]  281 	push	#<___str_0
      00013E 4Bs00            [ 1]  282 	push	#(___str_0 >> 8)
      000140 CDr00r00         [ 4]  283 	call	_assert_failed
      000143 5B 06            [ 2]  284 	addw	sp, #6
      000145 84               [ 1]  285 	pop	a
      000146                        286 00111$:
                                    287 ;	../src/stm8s_exti.c: 133: switch (Port)
      000146 88               [ 1]  288 	push	a
      000147 7B 04            [ 1]  289 	ld	a, (0x04, sp)
      000149 A1 04            [ 1]  290 	cp	a, #0x04
      00014B 84               [ 1]  291 	pop	a
      00014C 23 01            [ 2]  292 	jrule	00167$
      00014E 81               [ 4]  293 	ret
      00014F                        294 00167$:
      00014F 5F               [ 1]  295 	clrw	x
      000150 7B 03            [ 1]  296 	ld	a, (0x03, sp)
      000152 97               [ 1]  297 	ld	xl, a
      000153 58               [ 2]  298 	sllw	x
      000154 DEu01u58         [ 2]  299 	ldw	x, (#00168$, x)
      000157 FC               [ 2]  300 	jp	(x)
      000158                        301 00168$:
      000158r01r62                  302 	.dw	#00101$
      00015Ar01r68                  303 	.dw	#00102$
      00015Cr01r70                  304 	.dw	#00103$
      00015Er01r79                  305 	.dw	#00104$
      000160r01r84                  306 	.dw	#00105$
                                    307 ;	../src/stm8s_exti.c: 135: case EXTI_PORT_GPIOA:
      000162                        308 00101$:
                                    309 ;	../src/stm8s_exti.c: 136: value = (uint8_t)(EXTI->CR1 & EXTI_CR1_PAIS);
      000162 C6 50 A0         [ 1]  310 	ld	a, 0x50a0
      000165 A4 03            [ 1]  311 	and	a, #0x03
                                    312 ;	../src/stm8s_exti.c: 137: break;
      000167 81               [ 4]  313 	ret
                                    314 ;	../src/stm8s_exti.c: 138: case EXTI_PORT_GPIOB:
      000168                        315 00102$:
                                    316 ;	../src/stm8s_exti.c: 139: value = (uint8_t)((uint8_t)(EXTI->CR1 & EXTI_CR1_PBIS) >> 2);
      000168 C6 50 A0         [ 1]  317 	ld	a, 0x50a0
      00016B A4 0C            [ 1]  318 	and	a, #0x0c
      00016D 44               [ 1]  319 	srl	a
      00016E 44               [ 1]  320 	srl	a
                                    321 ;	../src/stm8s_exti.c: 140: break;
      00016F 81               [ 4]  322 	ret
                                    323 ;	../src/stm8s_exti.c: 141: case EXTI_PORT_GPIOC:
      000170                        324 00103$:
                                    325 ;	../src/stm8s_exti.c: 142: value = (uint8_t)((uint8_t)(EXTI->CR1 & EXTI_CR1_PCIS) >> 4);
      000170 C6 50 A0         [ 1]  326 	ld	a, 0x50a0
      000173 A4 30            [ 1]  327 	and	a, #0x30
      000175 4E               [ 1]  328 	swap	a
      000176 A4 0F            [ 1]  329 	and	a, #0x0f
                                    330 ;	../src/stm8s_exti.c: 143: break;
      000178 81               [ 4]  331 	ret
                                    332 ;	../src/stm8s_exti.c: 144: case EXTI_PORT_GPIOD:
      000179                        333 00104$:
                                    334 ;	../src/stm8s_exti.c: 145: value = (uint8_t)((uint8_t)(EXTI->CR1 & EXTI_CR1_PDIS) >> 6);
      000179 C6 50 A0         [ 1]  335 	ld	a, 0x50a0
      00017C A4 C0            [ 1]  336 	and	a, #0xc0
      00017E 4E               [ 1]  337 	swap	a
      00017F A4 0F            [ 1]  338 	and	a, #0x0f
      000181 44               [ 1]  339 	srl	a
      000182 44               [ 1]  340 	srl	a
                                    341 ;	../src/stm8s_exti.c: 146: break;
      000183 81               [ 4]  342 	ret
                                    343 ;	../src/stm8s_exti.c: 147: case EXTI_PORT_GPIOE:
      000184                        344 00105$:
                                    345 ;	../src/stm8s_exti.c: 148: value = (uint8_t)(EXTI->CR2 & EXTI_CR2_PEIS);
      000184 C6 50 A1         [ 1]  346 	ld	a, 0x50a1
      000187 A4 03            [ 1]  347 	and	a, #0x03
                                    348 ;	../src/stm8s_exti.c: 152: }
                                    349 ;	../src/stm8s_exti.c: 154: return((EXTI_Sensitivity_TypeDef)value);
                                    350 ;	../src/stm8s_exti.c: 155: }
      000189 81               [ 4]  351 	ret
                                    352 ;	../src/stm8s_exti.c: 162: EXTI_TLISensitivity_TypeDef EXTI_GetTLISensitivity(void)
                                    353 ;	-----------------------------------------
                                    354 ;	 function EXTI_GetTLISensitivity
                                    355 ;	-----------------------------------------
      00018A                        356 _EXTI_GetTLISensitivity:
                                    357 ;	../src/stm8s_exti.c: 167: value = (uint8_t)(EXTI->CR2 & EXTI_CR2_TLIS);
      00018A C6 50 A1         [ 1]  358 	ld	a, 0x50a1
      00018D A4 04            [ 1]  359 	and	a, #0x04
                                    360 ;	../src/stm8s_exti.c: 169: return((EXTI_TLISensitivity_TypeDef)value);
                                    361 ;	../src/stm8s_exti.c: 170: }
      00018F 81               [ 4]  362 	ret
                                    363 	.area CODE
                                    364 	.area CONST
      000000                        365 ___str_0:
      000000 2E 2E 2F 73 72 63 2F   366 	.ascii "../src/stm8s_exti.c"
             73 74 6D 38 73 5F 65
             78 74 69 2E 63
      000013 00                     367 	.db 0x00
                                    368 	.area INITIALIZER
                                    369 	.area CABS (ABS)
